target datalayout = "e-m:e-p270:32:32-p271:32:32-p272:64:64-i64:64-i128:128-f80:128-n8:16:32:64-S128"
target triple = "x86_64-pc-linux-gnu"

%struct.decNumber = type { i32, i32, i8, [1 x i8] }
%struct.decContext = type { i32, i32, i32, i32, i32, i32, i8 }

@_ZL9DECPOWERS = internal constant [10 x i32] [i32 1, i32 10, i32 100, i32 1000, i32 10000, i32 100000, i32 1000000, i32 10000000, i32 100000000, i32 1000000000], align 16

; Function Attrs: mustprogress uwtable
define internal void @_ZL9decStatusP9decNumberjP10decContext(ptr noundef %0, i32 noundef %1, ptr noundef %2) #0 {
  %4 = alloca ptr, align 8
  %5 = alloca i32, align 4
  %6 = alloca ptr, align 8
  store ptr %0, ptr %4, align 8, !tbaa !3
  store i32 %1, ptr %5, align 4, !tbaa !7
  store ptr %2, ptr %6, align 8, !tbaa !3
  %7 = load i32, ptr %5, align 4, !tbaa !7
  %8 = and i32 %7, 221
  %9 = icmp ne i32 %8, 0
  br i1 %9, label %10, label %23

10:                                               ; preds = %3
  %11 = load i32, ptr %5, align 4, !tbaa !7
  %12 = and i32 %11, 1073741824
  %13 = icmp ne i32 %12, 0
  br i1 %13, label %14, label %17

14:                                               ; preds = %10
  %15 = load i32, ptr %5, align 4, !tbaa !7
  %16 = and i32 %15, -1073741825
  store i32 %16, ptr %5, align 4, !tbaa !7
  br label %22

17:                                               ; preds = %10
  %18 = load ptr, ptr %4, align 8, !tbaa !3
  %19 = call ptr @uprv_decNumberZero_77(ptr noundef %18)
  %20 = load ptr, ptr %4, align 8, !tbaa !3
  %21 = getelementptr inbounds nuw %struct.decNumber, ptr %20, i32 0, i32 2
  store i8 32, ptr %21, align 4, !tbaa !9
  br label %22

22:                                               ; preds = %17, %14
  br label %23

23:                                               ; preds = %22, %3
  %24 = load ptr, ptr %6, align 8, !tbaa !3
  %25 = load i32, ptr %5, align 4, !tbaa !7
  %26 = call ptr @uprv_decContextSetStatus_77(ptr noundef %24, i32 noundef %25)
  ret void
}

; Function Attrs: mustprogress nounwind uwtable
define ptr @uprv_decNumberZero_77(ptr noundef %0) #2 {
  %2 = alloca ptr, align 8
  store ptr %0, ptr %2, align 8, !tbaa !3
  %3 = load ptr, ptr %2, align 8, !tbaa !3
  %4 = getelementptr inbounds nuw %struct.decNumber, ptr %3, i32 0, i32 2
  store i8 0, ptr %4, align 4, !tbaa !9
  %5 = load ptr, ptr %2, align 8, !tbaa !3
  %6 = getelementptr inbounds nuw %struct.decNumber, ptr %5, i32 0, i32 1
  store i32 0, ptr %6, align 4, !tbaa !17
  %7 = load ptr, ptr %2, align 8, !tbaa !3
  %8 = getelementptr inbounds nuw %struct.decNumber, ptr %7, i32 0, i32 0
  store i32 1, ptr %8, align 4, !tbaa !16
  %9 = load ptr, ptr %2, align 8, !tbaa !3
  %10 = getelementptr inbounds nuw %struct.decNumber, ptr %9, i32 0, i32 3
  %11 = getelementptr inbounds [1 x i8], ptr %10, i64 0, i64 0
  store i8 0, ptr %11, align 1, !tbaa !13
  %12 = load ptr, ptr %2, align 8, !tbaa !3
  ret ptr %12
}

; Function Attrs: mustprogress nounwind uwtable
define internal void @_ZL14decSetMaxValueP9decNumberP10decContext(ptr noundef %0, ptr noundef %1) #2 {
  %3 = alloca ptr, align 8
  %4 = alloca ptr, align 8
  %5 = alloca ptr, align 8
  %6 = alloca i32, align 4
  store ptr %0, ptr %3, align 8, !tbaa !3
  store ptr %1, ptr %4, align 8, !tbaa !3
  call void @llvm.lifetime.start.p0(i64 8, ptr %5) #8
  call void @llvm.lifetime.start.p0(i64 4, ptr %6) #8
  %7 = load ptr, ptr %4, align 8, !tbaa !3
  %8 = getelementptr inbounds nuw %struct.decContext, ptr %7, i32 0, i32 0
  %9 = load i32, ptr %8, align 4, !tbaa !32
  store i32 %9, ptr %6, align 4, !tbaa !7
  %10 = load i32, ptr %6, align 4, !tbaa !7
  %11 = load ptr, ptr %3, align 8, !tbaa !3
  %12 = getelementptr inbounds nuw %struct.decNumber, ptr %11, i32 0, i32 0
  store i32 %10, ptr %12, align 4, !tbaa !16
  %13 = load ptr, ptr %3, align 8, !tbaa !3
  %14 = getelementptr inbounds nuw %struct.decNumber, ptr %13, i32 0, i32 3
  %15 = getelementptr inbounds [1 x i8], ptr %14, i64 0, i64 0
  store ptr %15, ptr %5, align 8, !tbaa !11
  br label %16

16:                                               ; preds = %32, %2
  %17 = load i32, ptr %6, align 4, !tbaa !7
  %18 = icmp sgt i32 %17, 1
  br i1 %18, label %19, label %21

19:                                               ; preds = %16
  %20 = load ptr, ptr %5, align 8, !tbaa !11
  store i8 9, ptr %20, align 1, !tbaa !13
  br label %29

21:                                               ; preds = %16
  %22 = load i32, ptr %6, align 4, !tbaa !7
  %23 = sext i32 %22 to i64
  %24 = getelementptr inbounds [10 x i32], ptr @_ZL9DECPOWERS, i64 0, i64 %23
  %25 = load i32, ptr %24, align 4, !tbaa !7
  %26 = sub i32 %25, 1
  %27 = trunc i32 %26 to i8
  %28 = load ptr, ptr %5, align 8, !tbaa !11
  store i8 %27, ptr %28, align 1, !tbaa !13
  br label %35

29:                                               ; preds = %19
  %30 = load i32, ptr %6, align 4, !tbaa !7
  %31 = sub nsw i32 %30, 1
  store i32 %31, ptr %6, align 4, !tbaa !7
  br label %32

32:                                               ; preds = %29
  %33 = load ptr, ptr %5, align 8, !tbaa !11
  %34 = getelementptr inbounds nuw i8, ptr %33, i32 1
  store ptr %34, ptr %5, align 8, !tbaa !11
  br label %16, !llvm.loop !91

35:                                               ; preds = %21
  %36 = load ptr, ptr %3, align 8, !tbaa !3
  %37 = getelementptr inbounds nuw %struct.decNumber, ptr %36, i32 0, i32 2
  store i8 0, ptr %37, align 4, !tbaa !9
  %38 = load ptr, ptr %4, align 8, !tbaa !3
  %39 = getelementptr inbounds nuw %struct.decContext, ptr %38, i32 0, i32 1
  %40 = load i32, ptr %39, align 4, !tbaa !41
  %41 = load ptr, ptr %4, align 8, !tbaa !3
  %42 = getelementptr inbounds nuw %struct.decContext, ptr %41, i32 0, i32 0
  %43 = load i32, ptr %42, align 4, !tbaa !32
  %44 = sub nsw i32 %40, %43
  %45 = add nsw i32 %44, 1
  %46 = load ptr, ptr %3, align 8, !tbaa !3
  %47 = getelementptr inbounds nuw %struct.decNumber, ptr %46, i32 0, i32 1
  store i32 %45, ptr %47, align 4, !tbaa !17
  call void @llvm.lifetime.end.p0(i64 4, ptr %6) #8
  call void @llvm.lifetime.end.p0(i64 8, ptr %5) #8
  ret void
}

; Function Attrs: mustprogress uwtable
define ptr @uprv_decNumberNextMinus_77(ptr noundef %0, ptr noundef %1, ptr noundef %2) #0 {
  %4 = alloca ptr, align 8
  %5 = alloca ptr, align 8
  %6 = alloca ptr, align 8
  %7 = alloca ptr, align 8
  %8 = alloca %struct.decNumber, align 4
  %9 = alloca %struct.decContext, align 4
  %10 = alloca i32, align 4
  %11 = alloca i32, align 4
  store ptr %0, ptr %5, align 8, !tbaa !3
  store ptr %1, ptr %6, align 8, !tbaa !3
  store ptr %2, ptr %7, align 8, !tbaa !3
  call void @llvm.lifetime.start.p0(i64 12, ptr %8) #8
  call void @llvm.lifetime.start.p0(i64 28, ptr %9) #8
  %12 = load ptr, ptr %7, align 8, !tbaa !3
  call void @llvm.memcpy.p0.p0.i64(ptr align 4 %9, ptr align 4 %12, i64 28, i1 false), !tbaa.struct !66
  call void @llvm.lifetime.start.p0(i64 4, ptr %10) #8
  store i32 0, ptr %10, align 4, !tbaa !7
  %13 = load ptr, ptr %6, align 8, !tbaa !3
  %14 = getelementptr inbounds nuw %struct.decNumber, ptr %13, i32 0, i32 2
  %15 = load i8, ptr %14, align 4, !tbaa !9
  %16 = zext i8 %15 to i32
  %17 = and i32 %16, 192
  %18 = icmp eq i32 %17, 64
  br i1 %18, label %19, label %23

19:                                               ; preds = %3
  %20 = load ptr, ptr %5, align 8, !tbaa !3
  %21 = load ptr, ptr %7, align 8, !tbaa !3
  call void @_ZL14decSetMaxValueP9decNumberP10decContext(ptr noundef %20, ptr noundef %21)
  %22 = load ptr, ptr %5, align 8, !tbaa !3
  store ptr %22, ptr %4, align 8
  store i32 1, ptr %11, align 4
  br label %42

23:                                               ; preds = %3
  %24 = call ptr @uprv_decNumberZero_77(ptr noundef %8)
  %25 = getelementptr inbounds nuw %struct.decNumber, ptr %8, i32 0, i32 3
  %26 = getelementptr inbounds [1 x i8], ptr %25, i64 0, i64 0
  store i8 1, ptr %26, align 1, !tbaa !13
  %27 = getelementptr inbounds nuw %struct.decNumber, ptr %8, i32 0, i32 1
  store i32 -1000000000, ptr %27, align 4, !tbaa !17
  %28 = getelementptr inbounds nuw %struct.decContext, ptr %9, i32 0, i32 3
  store i32 6, ptr %28, align 4, !tbaa !50
  %29 = load ptr, ptr %5, align 8, !tbaa !3
  %30 = load ptr, ptr %6, align 8, !tbaa !3
  %31 = call noundef ptr @_ZL8decAddOpP9decNumberPKS_S2_P10decContexthPj(ptr noundef %29, ptr noundef %30, ptr noundef %8, ptr noundef %9, i8 noundef zeroext -128, ptr noundef %10)
  %32 = load i32, ptr %10, align 4, !tbaa !7
  %33 = and i32 %32, 1073741952
  store i32 %33, ptr %10, align 4, !tbaa !7
  %34 = load i32, ptr %10, align 4, !tbaa !7
  %35 = icmp ne i32 %34, 0
  br i1 %35, label %36, label %40

36:                                               ; preds = %23
  %37 = load ptr, ptr %5, align 8, !tbaa !3
  %38 = load i32, ptr %10, align 4, !tbaa !7
  %39 = load ptr, ptr %7, align 8, !tbaa !3
  call void @_ZL9decStatusP9decNumberjP10decContext(ptr noundef %37, i32 noundef %38, ptr noundef %39)
  br label %40

40:                                               ; preds = %36, %23
  %41 = load ptr, ptr %5, align 8, !tbaa !3
  store ptr %41, ptr %4, align 8
  store i32 1, ptr %11, align 4
  br label %42

42:                                               ; preds = %40, %19
  call void @llvm.lifetime.end.p0(i64 4, ptr %10) #8
  call void @llvm.lifetime.end.p0(i64 28, ptr %9) #8
  call void @llvm.lifetime.end.p0(i64 12, ptr %8) #8
  %43 = load ptr, ptr %4, align 8
  ret ptr %43
}