; Function Attrs: mustprogress uwtable
define noundef ptr @uprv_decNumberNextMinus_77(ptr noundef returned %0, ptr noundef %1, ptr noundef %2) local_unnamed_addr #3 {
  %4 = alloca %struct.decNumber, align 4
  %5 = alloca %struct.decContext, align 4
  %6 = alloca i32, align 4
  call void @llvm.lifetime.start.p0(i64 12, ptr nonnull %4) #16
  call void @llvm.lifetime.start.p0(i64 28, ptr nonnull %5) #16
  call void @llvm.memcpy.p0.p0.i64(ptr noundef nonnull align 4 dereferenceable(28) %5, ptr noundef nonnull align 4 dereferenceable(28) %2, i64 28, i1 false), !tbaa.struct !61
  call void @llvm.lifetime.start.p0(i64 4, ptr nonnull %6) #16
  store i32 0, ptr %6, align 4, !tbaa !14
  %7 = getelementptr inbounds nuw i8, ptr %1, i64 8
  %8 = load i8, ptr %7, align 4, !tbaa !3
  %9 = and i8 %8, -64
  %10 = icmp eq i8 %9, 64
  br i1 %10, label %11, label %31

11:                                               ; preds = %3
  %12 = load i32, ptr %2, align 4, !tbaa !27
  store i32 %12, ptr %0, align 4, !tbaa !9
  %13 = getelementptr i8, ptr %0, i64 9
  %14 = icmp sgt i32 %12, 1
  br i1 %14, label %.lr.ph.preheader.i, label %_ZL14decSetMaxValueP9decNumberP10decContext.exit

.lr.ph.preheader.i:                               ; preds = %11
  %15 = add nsw i32 %12, -1
  %16 = zext nneg i32 %15 to i64
  tail call void @llvm.memset.p0.i64(ptr align 1 %13, i8 9, i64 %16, i1 false), !tbaa !10
  %17 = zext nneg i32 %12 to i64
  %18 = getelementptr i8, ptr %0, i64 %17
  %scevgep.i = getelementptr i8, ptr %18, i64 8
  br label %_ZL14decSetMaxValueP9decNumberP10decContext.exit

_ZL14decSetMaxValueP9decNumberP10decContext.exit: ; preds = %11, %.lr.ph.preheader.i
  %.013.lcssa.i = phi ptr [ %13, %11 ], [ %scevgep.i, %.lr.ph.preheader.i ]
  %.0.lcssa.i = phi i32 [ %12, %11 ], [ 1, %.lr.ph.preheader.i ]
  %19 = sext i32 %.0.lcssa.i to i64
  %20 = getelementptr inbounds [10 x i32], ptr @_ZL9DECPOWERS, i64 0, i64 %19
  %21 = load i32, ptr %20, align 4, !tbaa !14
  %22 = trunc i32 %21 to i8
  %23 = add i8 %22, -1
  store i8 %23, ptr %.013.lcssa.i, align 1, !tbaa !10
  %24 = getelementptr inbounds nuw i8, ptr %0, i64 8
  store i8 0, ptr %24, align 4, !tbaa !3
  %25 = getelementptr inbounds nuw i8, ptr %2, i64 4
  %26 = load i32, ptr %25, align 4, !tbaa !36
  %27 = load i32, ptr %2, align 4, !tbaa !27
  %28 = add i32 %26, 1
  %29 = sub i32 %28, %27
  %30 = getelementptr inbounds nuw i8, ptr %0, i64 4
  store i32 %29, ptr %30, align 4, !tbaa !8
  br label %48

31:                                               ; preds = %3
  %32 = getelementptr inbounds nuw i8, ptr %4, i64 8
  store i8 0, ptr %32, align 4, !tbaa !3
  %33 = getelementptr inbounds nuw i8, ptr %4, i64 4
  store i32 1, ptr %4, align 4, !tbaa !9
  %34 = getelementptr inbounds nuw i8, ptr %4, i64 9
  store i8 1, ptr %34, align 1, !tbaa !10
  store i32 -1000000000, ptr %33, align 4, !tbaa !8
  %35 = getelementptr inbounds nuw i8, ptr %5, i64 12
  store i32 6, ptr %35, align 4, !tbaa !45
  %36 = call fastcc noundef ptr @_ZL8decAddOpP9decNumberPKS_S2_P10decContexthPj(ptr noundef %0, ptr noundef nonnull %1, ptr noundef nonnull %4, ptr noundef nonnull %5, i8 noundef zeroext -128, ptr noundef %6)
  %37 = load i32, ptr %6, align 4, !tbaa !14
  %38 = and i32 %37, 1073741952
  %.not = icmp eq i32 %38, 0
  br i1 %.not, label %48, label %39

39:                                               ; preds = %31
  %40 = and i32 %37, 128
  %.not.i = icmp eq i32 %40, 0
  br i1 %.not.i, label %_ZL9decStatusP9decNumberjP10decContext.exit, label %41

41:                                               ; preds = %39
  %42 = and i32 %37, 1073741824
  %.not6.i = icmp eq i32 %42, 0
  br i1 %.not6.i, label %43, label %_ZL9decStatusP9decNumberjP10decContext.exit

43:                                               ; preds = %41
  %44 = getelementptr inbounds nuw i8, ptr %0, i64 8
  %45 = getelementptr inbounds nuw i8, ptr %0, i64 4
  store i32 0, ptr %45, align 4, !tbaa !8
  store i32 1, ptr %0, align 4, !tbaa !9
  %46 = getelementptr inbounds nuw i8, ptr %0, i64 9
  store i8 0, ptr %46, align 1, !tbaa !10
  store i8 32, ptr %44, align 4, !tbaa !3
  br label %_ZL9decStatusP9decNumberjP10decContext.exit

_ZL9decStatusP9decNumberjP10decContext.exit:      ; preds = %41, %39, %43
  %.0.i = phi i32 [ %38, %43 ], [ %38, %39 ], [ 128, %41 ]
  %47 = call ptr @uprv_decContextSetStatus_77(ptr noundef nonnull %2, i32 noundef %.0.i)
  br label %48

48:                                               ; preds = %31, %_ZL9decStatusP9decNumberjP10decContext.exit, %_ZL14decSetMaxValueP9decNumberP10decContext.exit
  call void @llvm.lifetime.end.p0(i64 4, ptr nonnull %6) #16
  call void @llvm.lifetime.end.p0(i64 28, ptr nonnull %5) #16
  call void @llvm.lifetime.end.p0(i64 12, ptr nonnull %4) #16
  ret ptr %0
}